target datalayout = "e-m:e-p270:32:32-p271:32:32-p272:64:64-i64:64-i128:128-f80:128-n8:16:32:64-S128"
target triple = "x86_64-pc-linux-gnu"

%struct.forward = type { %struct.slurm_node_alias_addrs_t, i16, i16, ptr, i32, i16, i16 }
%struct.slurm_node_alias_addrs_t = type { i64, ptr, ptr, i32, ptr }

@.str.18 = private unnamed_addr constant [12 x i8] c"%s: no init\00", align 1
@__func__.destroy_forward = private unnamed_addr constant [16 x i8] c"destroy_forward\00", align 1

; Function Attrs: nounwind uwtable
define dso_local void @destroy_forward(ptr noundef %0) #0 {
  %2 = alloca ptr, align 8
  store ptr %0, ptr %2, align 8
  %3 = load ptr, ptr %2, align 8
  %4 = getelementptr inbounds nuw %struct.forward, ptr %3, i32 0, i32 2
  %5 = load i16, ptr %4, align 2
  %6 = zext i16 %5 to i32
  %7 = icmp eq i32 %6, 65534
  br i1 %7, label %8, label %15

8:                                                ; preds = %1
  %9 = load ptr, ptr %2, align 8
  %10 = getelementptr inbounds nuw %struct.forward, ptr %9, i32 0, i32 0
  call void @slurm_free_node_alias_addrs_members(ptr noundef %10)
  %11 = load ptr, ptr %2, align 8
  %12 = getelementptr inbounds nuw %struct.forward, ptr %11, i32 0, i32 3
  call void @slurm_xfree(ptr noundef %12)
  %13 = load ptr, ptr %2, align 8
  %14 = getelementptr inbounds nuw %struct.forward, ptr %13, i32 0, i32 2
  store i16 0, ptr %14, align 2
  br label %17

15:                                               ; preds = %1
  %16 = call i32 (ptr, ...) @error(ptr noundef @.str.18, ptr noundef @__func__.destroy_forward)
  br label %17

17:                                               ; preds = %15, %8
  ret void
}