; Function Attrs: nounwind uwtable
define dso_local void @destroy_forward(ptr noundef %0) local_unnamed_addr #0 {
  %2 = getelementptr inbounds nuw i8, ptr %0, i64 42
  %3 = load i16, ptr %2, align 2
  %4 = icmp eq i16 %3, -2
  br i1 %4, label %5, label %7

5:                                                ; preds = %1
  tail call void @slurm_free_node_alias_addrs_members(ptr noundef nonnull %0) #10
  %6 = getelementptr inbounds nuw i8, ptr %0, i64 48
  tail call void @slurm_xfree(ptr noundef nonnull %6) #10
  store i16 0, ptr %2, align 2
  br label %9

7:                                                ; preds = %1
  %8 = tail call i32 (ptr, ...) @error(ptr noundef nonnull @.str.18, ptr noundef nonnull @__func__.destroy_forward) #10
  br label %9

9:                                                ; preds = %7, %5
  ret void
}